#include <math.h>
#include <stdio.h>
#include <stdlib.h>
#include <string.h>

void main()
{
      int a[1000000];
      int i,n,del,j;
int *p;
      scanf("%d",&n);
      for(i=0;i<n;i++)
      {
       scanf("%d",&a[i]);
       }
       scanf("%d",&del);
      p=a;
       for(i=0;i<n;i++)
      {
                           if(a[i]==del) 
                           {
                             for(j=i;j<n;j++)   
                             a[j]=a[j+1];
                             i--;
                             n--;}
       }
      for(i=0;i<n-1;i++,p++)
      printf("%d ",*p);
      printf("%d",*p);
}
