; ModuleID = '42/569.c'
source_filename = "42/569.c"
target datalayout = "e-m:e-p270:32:32-p271:32:32-p272:64:64-i64:64-f80:128-n8:16:32:64-S128"
target triple = "x86_64-pc-linux-gnu"

@.str = private unnamed_addr constant [3 x i8] c"%d\00", align 1
@.str.1 = private unnamed_addr constant [4 x i8] c"%d \00", align 1

; Function Attrs: noinline nounwind uwtable
define dso_local void @main() #0 {
  %1 = alloca [1000000 x i32], align 16
  %2 = alloca i32, align 4
  %3 = alloca i32, align 4
  %4 = alloca i32, align 4
  %5 = alloca i32, align 4
  %6 = alloca i32*, align 8
  %7 = call i32 (i8*, ...) @__isoc99_scanf(i8* getelementptr inbounds ([3 x i8], [3 x i8]* @.str, i64 0, i64 0), i32* %3)
  store i32 0, i32* %2, align 4
  br label %8

8:                                                ; preds = %17, %0
  %9 = load i32, i32* %2, align 4
  %10 = load i32, i32* %3, align 4
  %11 = icmp slt i32 %9, %10
  br i1 %11, label %12, label %20

12:                                               ; preds = %8
  %13 = load i32, i32* %2, align 4
  %14 = sext i32 %13 to i64
  %15 = getelementptr inbounds [1000000 x i32], [1000000 x i32]* %1, i64 0, i64 %14
  %16 = call i32 (i8*, ...) @__isoc99_scanf(i8* getelementptr inbounds ([3 x i8], [3 x i8]* @.str, i64 0, i64 0), i32* %15)
  br label %17

17:                                               ; preds = %12
  %18 = load i32, i32* %2, align 4
  %19 = add nsw i32 %18, 1
  store i32 %19, i32* %2, align 4
  br label %8

20:                                               ; preds = %8
  %21 = call i32 (i8*, ...) @__isoc99_scanf(i8* getelementptr inbounds ([3 x i8], [3 x i8]* @.str, i64 0, i64 0), i32* %4)
  %22 = getelementptr inbounds [1000000 x i32], [1000000 x i32]* %1, i64 0, i64 0
  store i32* %22, i32** %6, align 8
  store i32 0, i32* %2, align 4
  br label %23

23:                                               ; preds = %58, %20
  %24 = load i32, i32* %2, align 4
  %25 = load i32, i32* %3, align 4
  %26 = icmp slt i32 %24, %25
  br i1 %26, label %27, label %61

27:                                               ; preds = %23
  %28 = load i32, i32* %2, align 4
  %29 = sext i32 %28 to i64
  %30 = getelementptr inbounds [1000000 x i32], [1000000 x i32]* %1, i64 0, i64 %29
  %31 = load i32, i32* %30, align 4
  %32 = load i32, i32* %4, align 4
  %33 = icmp eq i32 %31, %32
  br i1 %33, label %34, label %57

34:                                               ; preds = %27
  %35 = load i32, i32* %2, align 4
  store i32 %35, i32* %5, align 4
  br label %36

36:                                               ; preds = %49, %34
  %37 = load i32, i32* %5, align 4
  %38 = load i32, i32* %3, align 4
  %39 = icmp slt i32 %37, %38
  br i1 %39, label %40, label %52

40:                                               ; preds = %36
  %41 = load i32, i32* %5, align 4
  %42 = add nsw i32 %41, 1
  %43 = sext i32 %42 to i64
  %44 = getelementptr inbounds [1000000 x i32], [1000000 x i32]* %1, i64 0, i64 %43
  %45 = load i32, i32* %44, align 4
  %46 = load i32, i32* %5, align 4
  %47 = sext i32 %46 to i64
  %48 = getelementptr inbounds [1000000 x i32], [1000000 x i32]* %1, i64 0, i64 %47
  store i32 %45, i32* %48, align 4
  br label %49

49:                                               ; preds = %40
  %50 = load i32, i32* %5, align 4
  %51 = add nsw i32 %50, 1
  store i32 %51, i32* %5, align 4
  br label %36

52:                                               ; preds = %36
  %53 = load i32, i32* %2, align 4
  %54 = add nsw i32 %53, -1
  store i32 %54, i32* %2, align 4
  %55 = load i32, i32* %3, align 4
  %56 = add nsw i32 %55, -1
  store i32 %56, i32* %3, align 4
  br label %57

57:                                               ; preds = %52, %27
  br label %58

58:                                               ; preds = %57
  %59 = load i32, i32* %2, align 4
  %60 = add nsw i32 %59, 1
  store i32 %60, i32* %2, align 4
  br label %23

61:                                               ; preds = %23
  store i32 0, i32* %2, align 4
  br label %62

62:                                               ; preds = %71, %61
  %63 = load i32, i32* %2, align 4
  %64 = load i32, i32* %3, align 4
  %65 = sub nsw i32 %64, 1
  %66 = icmp slt i32 %63, %65
  br i1 %66, label %67, label %76

67:                                               ; preds = %62
  %68 = load i32*, i32** %6, align 8
  %69 = load i32, i32* %68, align 4
  %70 = call i32 (i8*, ...) @printf(i8* getelementptr inbounds ([4 x i8], [4 x i8]* @.str.1, i64 0, i64 0), i32 %69)
  br label %71

71:                                               ; preds = %67
  %72 = load i32, i32* %2, align 4
  %73 = add nsw i32 %72, 1
  store i32 %73, i32* %2, align 4
  %74 = load i32*, i32** %6, align 8
  %75 = getelementptr inbounds i32, i32* %74, i32 1
  store i32* %75, i32** %6, align 8
  br label %62

76:                                               ; preds = %62
  %77 = load i32*, i32** %6, align 8
  %78 = load i32, i32* %77, align 4
  %79 = call i32 (i8*, ...) @printf(i8* getelementptr inbounds ([3 x i8], [3 x i8]* @.str, i64 0, i64 0), i32 %78)
  ret void
}

declare dso_local i32 @__isoc99_scanf(i8*, ...) #1

declare dso_local i32 @printf(i8*, ...) #1


!llvm.module.flags = !{!0}
!llvm.ident = !{!1}

!0 = !{i32 1, !"wchar_size", i32 4}
!1 = !{!"clang version 10.0.0-4ubuntu1 "}
