; ModuleID = 'source-C-CXX/41/569.c'
source_filename = "source-C-CXX/41/569.c"
target datalayout = "e-m:e-p270:32:32-p271:32:32-p272:64:64-i64:64-f80:128-n8:16:32:64-S128"
target triple = "x86_64-pc-linux-gnu"

@.str = private unnamed_addr constant [3 x i8] c"%d\00", align 1
@.str.1 = private unnamed_addr constant [4 x i8] c"%d \00", align 1

; Function Attrs: nofree nounwind sspstrong uwtable
define dso_local void @main() local_unnamed_addr #0 {
  %1 = alloca [1000000 x i32], align 16
  %2 = alloca i32, align 4
  %3 = alloca i32, align 4
  %4 = bitcast [1000000 x i32]* %1 to i8*
  call void @llvm.lifetime.start.p0i8(i64 4000000, i8* nonnull %4) #3
  %5 = bitcast i32* %2 to i8*
  call void @llvm.lifetime.start.p0i8(i64 4, i8* nonnull %5) #3
  %6 = bitcast i32* %3 to i8*
  call void @llvm.lifetime.start.p0i8(i64 4, i8* nonnull %6) #3
  %7 = call i32 (i8*, ...) @__isoc99_scanf(i8* getelementptr inbounds ([3 x i8], [3 x i8]* @.str, i64 0, i64 0), i32* nonnull %2)
  %8 = load i32, i32* %2, align 4, !tbaa !5
  %9 = icmp sgt i32 %8, 0
  br i1 %9, label %10, label %18

10:                                               ; preds = %0, %10
  %11 = phi i64 [ %14, %10 ], [ 0, %0 ]
  %12 = getelementptr inbounds [1000000 x i32], [1000000 x i32]* %1, i64 0, i64 %11
  %13 = call i32 (i8*, ...) @__isoc99_scanf(i8* getelementptr inbounds ([3 x i8], [3 x i8]* @.str, i64 0, i64 0), i32* nonnull %12)
  %14 = add nuw nsw i64 %11, 1
  %15 = load i32, i32* %2, align 4, !tbaa !5
  %16 = sext i32 %15 to i64
  %17 = icmp slt i64 %14, %16
  br i1 %17, label %10, label %18, !llvm.loop !9

18:                                               ; preds = %10, %0
  %19 = call i32 (i8*, ...) @__isoc99_scanf(i8* getelementptr inbounds ([3 x i8], [3 x i8]* @.str, i64 0, i64 0), i32* nonnull %3)
  %20 = getelementptr inbounds [1000000 x i32], [1000000 x i32]* %1, i64 0, i64 0
  %21 = load i32, i32* %3, align 4
  %22 = load i32, i32* %2, align 4, !tbaa !5
  %23 = icmp sgt i32 %22, 0
  br i1 %23, label %26, label %125

24:                                               ; preds = %110
  %25 = icmp sgt i32 %111, 1
  br i1 %25, label %115, label %125

26:                                               ; preds = %18, %110
  %27 = phi i32 [ %111, %110 ], [ %22, %18 ]
  %28 = phi i32 [ %113, %110 ], [ 0, %18 ]
  %29 = sext i32 %28 to i64
  %30 = getelementptr inbounds [1000000 x i32], [1000000 x i32]* %1, i64 0, i64 %29
  %31 = load i32, i32* %30, align 4, !tbaa !5
  %32 = icmp eq i32 %31, %21
  br i1 %32, label %33, label %110

33:                                               ; preds = %26
  %34 = icmp slt i32 %28, %27
  br i1 %34, label %35, label %107

35:                                               ; preds = %33
  %36 = sext i32 %27 to i64
  %37 = sub nsw i64 %36, %29
  %38 = icmp ult i64 %37, 8
  br i1 %38, label %98, label %39

39:                                               ; preds = %35
  %40 = and i64 %37, -8
  %41 = add nsw i64 %40, %29
  %42 = add nsw i64 %40, -8
  %43 = lshr exact i64 %42, 3
  %44 = add nuw nsw i64 %43, 1
  %45 = and i64 %44, 1
  %46 = icmp eq i64 %42, 0
  br i1 %46, label %80, label %47

47:                                               ; preds = %39
  %48 = and i64 %44, 4611686018427387902
  br label %49

49:                                               ; preds = %49, %47
  %50 = phi i64 [ 0, %47 ], [ %77, %49 ]
  %51 = phi i64 [ %48, %47 ], [ %78, %49 ]
  %52 = add i64 %50, %29
  %53 = add nsw i64 %52, 1
  %54 = getelementptr inbounds [1000000 x i32], [1000000 x i32]* %1, i64 0, i64 %53
  %55 = bitcast i32* %54 to <4 x i32>*
  %56 = load <4 x i32>, <4 x i32>* %55, align 4, !tbaa !5
  %57 = getelementptr inbounds i32, i32* %54, i64 4
  %58 = bitcast i32* %57 to <4 x i32>*
  %59 = load <4 x i32>, <4 x i32>* %58, align 4, !tbaa !5
  %60 = getelementptr inbounds [1000000 x i32], [1000000 x i32]* %1, i64 0, i64 %52
  %61 = bitcast i32* %60 to <4 x i32>*
  store <4 x i32> %56, <4 x i32>* %61, align 4, !tbaa !5
  %62 = getelementptr inbounds i32, i32* %60, i64 4
  %63 = bitcast i32* %62 to <4 x i32>*
  store <4 x i32> %59, <4 x i32>* %63, align 4, !tbaa !5
  %64 = or i64 %50, 8
  %65 = add i64 %64, %29
  %66 = add nsw i64 %65, 1
  %67 = getelementptr inbounds [1000000 x i32], [1000000 x i32]* %1, i64 0, i64 %66
  %68 = bitcast i32* %67 to <4 x i32>*
  %69 = load <4 x i32>, <4 x i32>* %68, align 4, !tbaa !5
  %70 = getelementptr inbounds i32, i32* %67, i64 4
  %71 = bitcast i32* %70 to <4 x i32>*
  %72 = load <4 x i32>, <4 x i32>* %71, align 4, !tbaa !5
  %73 = getelementptr inbounds [1000000 x i32], [1000000 x i32]* %1, i64 0, i64 %65
  %74 = bitcast i32* %73 to <4 x i32>*
  store <4 x i32> %69, <4 x i32>* %74, align 4, !tbaa !5
  %75 = getelementptr inbounds i32, i32* %73, i64 4
  %76 = bitcast i32* %75 to <4 x i32>*
  store <4 x i32> %72, <4 x i32>* %76, align 4, !tbaa !5
  %77 = add nuw i64 %50, 16
  %78 = add i64 %51, -2
  %79 = icmp eq i64 %78, 0
  br i1 %79, label %80, label %49, !llvm.loop !11

80:                                               ; preds = %49, %39
  %81 = phi i64 [ 0, %39 ], [ %77, %49 ]
  %82 = icmp eq i64 %45, 0
  br i1 %82, label %96, label %83

83:                                               ; preds = %80
  %84 = add i64 %81, %29
  %85 = add nsw i64 %84, 1
  %86 = getelementptr inbounds [1000000 x i32], [1000000 x i32]* %1, i64 0, i64 %85
  %87 = bitcast i32* %86 to <4 x i32>*
  %88 = load <4 x i32>, <4 x i32>* %87, align 4, !tbaa !5
  %89 = getelementptr inbounds i32, i32* %86, i64 4
  %90 = bitcast i32* %89 to <4 x i32>*
  %91 = load <4 x i32>, <4 x i32>* %90, align 4, !tbaa !5
  %92 = getelementptr inbounds [1000000 x i32], [1000000 x i32]* %1, i64 0, i64 %84
  %93 = bitcast i32* %92 to <4 x i32>*
  store <4 x i32> %88, <4 x i32>* %93, align 4, !tbaa !5
  %94 = getelementptr inbounds i32, i32* %92, i64 4
  %95 = bitcast i32* %94 to <4 x i32>*
  store <4 x i32> %91, <4 x i32>* %95, align 4, !tbaa !5
  br label %96

96:                                               ; preds = %80, %83
  %97 = icmp eq i64 %37, %40
  br i1 %97, label %107, label %98

98:                                               ; preds = %35, %96
  %99 = phi i64 [ %29, %35 ], [ %41, %96 ]
  br label %100

100:                                              ; preds = %98, %100
  %101 = phi i64 [ %102, %100 ], [ %99, %98 ]
  %102 = add nsw i64 %101, 1
  %103 = getelementptr inbounds [1000000 x i32], [1000000 x i32]* %1, i64 0, i64 %102
  %104 = load i32, i32* %103, align 4, !tbaa !5
  %105 = getelementptr inbounds [1000000 x i32], [1000000 x i32]* %1, i64 0, i64 %101
  store i32 %104, i32* %105, align 4, !tbaa !5
  %106 = icmp eq i64 %102, %36
  br i1 %106, label %107, label %100, !llvm.loop !13

107:                                              ; preds = %100, %96, %33
  %108 = add nsw i32 %28, -1
  %109 = add nsw i32 %27, -1
  store i32 %109, i32* %2, align 4, !tbaa !5
  br label %110

110:                                              ; preds = %26, %107
  %111 = phi i32 [ %109, %107 ], [ %27, %26 ]
  %112 = phi i32 [ %108, %107 ], [ %28, %26 ]
  %113 = add nsw i32 %112, 1
  %114 = icmp slt i32 %113, %111
  br i1 %114, label %26, label %24, !llvm.loop !15

115:                                              ; preds = %24, %115
  %116 = phi i32* [ %121, %115 ], [ %20, %24 ]
  %117 = phi i32 [ %120, %115 ], [ 0, %24 ]
  %118 = load i32, i32* %116, align 4, !tbaa !5
  %119 = call i32 (i8*, ...) @printf(i8* nonnull dereferenceable(1) getelementptr inbounds ([4 x i8], [4 x i8]* @.str.1, i64 0, i64 0), i32 %118)
  %120 = add nuw nsw i32 %117, 1
  %121 = getelementptr inbounds i32, i32* %116, i64 1
  %122 = load i32, i32* %2, align 4, !tbaa !5
  %123 = add nsw i32 %122, -1
  %124 = icmp slt i32 %120, %123
  br i1 %124, label %115, label %125, !llvm.loop !16

125:                                              ; preds = %115, %18, %24
  %126 = phi i32* [ %20, %24 ], [ %20, %18 ], [ %121, %115 ]
  %127 = load i32, i32* %126, align 4, !tbaa !5
  %128 = call i32 (i8*, ...) @printf(i8* nonnull dereferenceable(1) getelementptr inbounds ([3 x i8], [3 x i8]* @.str, i64 0, i64 0), i32 %127)
  call void @llvm.lifetime.end.p0i8(i64 4, i8* nonnull %6) #3
  call void @llvm.lifetime.end.p0i8(i64 4, i8* nonnull %5) #3
  call void @llvm.lifetime.end.p0i8(i64 4000000, i8* nonnull %4) #3
  ret void
}

; Function Attrs: argmemonly mustprogress nofree nosync nounwind willreturn
declare void @llvm.lifetime.start.p0i8(i64 immarg, i8* nocapture) #1

; Function Attrs: nofree nounwind
declare noundef i32 @__isoc99_scanf(i8* nocapture noundef readonly, ...) local_unnamed_addr #2

; Function Attrs: nofree nounwind
declare noundef i32 @printf(i8* nocapture noundef readonly, ...) local_unnamed_addr #2

; Function Attrs: argmemonly mustprogress nofree nosync nounwind willreturn
declare void @llvm.lifetime.end.p0i8(i64 immarg, i8* nocapture) #1


!llvm.module.flags = !{!0, !1, !2, !3}
!llvm.ident = !{!4}

!0 = !{i32 1, !"wchar_size", i32 4}
!1 = !{i32 7, !"PIC Level", i32 2}
!2 = !{i32 7, !"PIE Level", i32 2}
!3 = !{i32 7, !"uwtable", i32 1}
!4 = !{!"clang version 13.0.0"}
!5 = !{!6, !6, i64 0}
!6 = !{!"int", !7, i64 0}
!7 = !{!"omnipotent char", !8, i64 0}
!8 = !{!"Simple C/C++ TBAA"}
!9 = distinct !{!9, !10}
!10 = !{!"llvm.loop.mustprogress"}
!11 = distinct !{!11, !10, !12}
!12 = !{!"llvm.loop.isvectorized", i32 1}
!13 = distinct !{!13, !10, !14, !12}
!14 = !{!"llvm.loop.unroll.runtime.disable"}
!15 = distinct !{!15, !10}
!16 = distinct !{!16, !10}
